(dp0
S'deltaz'
p1
(lp2
cnumpy.core.multiarray
scalar
p3
(cnumpy
dtype
p4
(S'f8'
p5
I0
I1
tp6
Rp7
(I3
S'<'
p8
NNNI-1
I-1
I0
tp9
bS's\x9e\xe9\x9b\x1a\x00\x8b?'
p10
tp11
Rp12
ag3
(g7
S'\xadw\x051\x1f\xfb@?'
p13
tp14
Rp15
ag3
(g7
S'\xd1\xa74\x9d\rl\x87?'
p16
tp17
Rp18
ag3
(g7
S'Kx\xdf\x8f\xc2\xb1T?'
p19
tp20
Rp21
ag3
(g7
S'\xcc\xfb\xb1s-\x8a\x82?'
p22
tp23
Rp24
asS'order'
p25
(lp26
I1
aI2
aI3
aI4
aI5
asS'Au'
p27
(lp28
(lp29
g3
(g7
S'\xf0B\n}\x89\x93\xd1?'
p30
tp31
Rp32
ag3
(g7
S'\xaa7\xd0\x8c@_\xd0?'
p33
tp34
Rp35
aa(lp36
g3
(g7
S'\xec&$b])\xd1?'
p37
tp38
Rp39
ag3
(g7
S'\xb59\xb6J+l\xd1?'
p40
tp41
Rp42
ag3
(g7
S'\xf4\xaa\x85\x9cBv\xd1?'
p43
tp44
Rp45
aa(lp46
g3
(g7
S'\x87~E\xdbaA\xd1?'
p47
tp48
Rp49
ag3
(g7
S'\x8c$\xa6\xa4\xd3\xff\xd1?'
p50
tp51
Rp52
ag3
(g7
S'L\xc8\x10\xfe\xef+\xce?'
p53
tp54
Rp55
ag3
(g7
S'\x94\xe1\x14\x87IZ\xd0?'
p56
tp57
Rp58
aa(lp59
g3
(g7
S'\xbd\x93A\xb6\xbf\\\xd0?'
p60
tp61
Rp62
ag3
(g7
S"\x02\xc5'\xaa\x95\xa0\xd1?"
p63
tp64
Rp65
ag3
(g7
S'l\xff\x95\xe2\x83\xc1\xd1?'
p66
tp67
Rp68
ag3
(g7
S'\xae`]6C\xde\xce?'
p69
tp70
Rp71
ag3
(g7
S'\xd8\xbb\x89\xde/\xcc\xd0?'
p72
tp73
Rp74
aa(lp75
g3
(g7
S'\xe7B\xd9\xb0\xf5\x10\xd1?'
p76
tp77
Rp78
ag3
(g7
S'\xd0\x94 \xb1\xd5\xd5\xcc?'
p79
tp80
Rp81
ag3
(g7
S'\xf0w\xf6\x86\xc4\xab\xd4?'
p82
tp83
Rp84
ag3
(g7
S'^C\\\x8c\x91\x85\xd2?'
p85
tp86
Rp87
ag3
(g7
S'\x10\xfe\xd7\xb1\x86\xb9\xcc?'
p88
tp89
Rp90
ag3
(g7
S'\xdd\x8f\xc2ctX\xd4?'
p91
tp92
Rp93
aasS'Al'
p94
(lp95
(lp96
g3
(g7
S'\xf6X\x82D\x9e\x04\xa8?'
p97
tp98
Rp99
ag3
(g7
S'\xa4\x08\xd7\xe9n\x88\xd7\xbf'
p100
tp101
Rp102
aa(lp103
g3
(g7
S'\xd2\xc4^\x98\x9d\x84\xc3?'
p104
tp105
Rp106
ag3
(g7
S'w_\x11\xd5\x7f\xc5\xdb\xbf'
p107
tp108
Rp109
ag3
(g7
S'\xea\xcc\x93\xbcCa\xa3\xbf'
p110
tp111
Rp112
aa(lp113
g3
(g7
S'2\xcf\xe9\xdb\x00\xdf\xc4?'
p114
tp115
Rp116
ag3
(g7
S'\xca\xce\xcf\x82l\xbd\xd3\xbf'
p117
tp118
Rp119
ag3
(g7
S'\xb3\x86D\xba+\xec\xc3\xbf'
p120
tp121
Rp122
ag3
(g7
S'\xcdS\xcaod\xb4\xcd\xbf'
p123
tp124
Rp125
aa(lp126
g3
(g7
S'+@\x12[\x03o\xc6?'
p127
tp128
Rp129
ag3
(g7
S'72\xa1\xc7\x0eN\xd0\xbf'
p130
tp131
Rp132
ag3
(g7
S'4\xa8;\xb1\x8e\xab\xa2\xbf'
p133
tp134
Rp135
ag3
(g7
S'\xac\xc8\xff\xe0\x7fi\xdc\xbf'
p136
tp137
Rp138
ag3
(g7
S'\x00\xa8f\xe5k\xc4\x8d?'
p139
tp140
Rp141
aa(lp142
g3
(g7
S'\xd8]Yq\xd69\xc8?'
p143
tp144
Rp145
ag3
(g7
S'\x06\xa5\x8a\xe2\xa5\xd8\xcf\xbf'
p146
tp147
Rp148
ag3
(g7
S">R\xe2'\x88O\xb4?"
p149
tp150
Rp151
ag3
(g7
S'\xca\x7f\xed4\x7f\x8f\xe1\xbf'
p152
tp153
Rp154
ag3
(g7
S"\x00;\x90'\xd4\x81b\xbf"
p155
tp156
Rp157
ag3
(g7
S't\x9e*\xad\x0e\xdf\xce\xbf'
p158
tp159
Rp160
aasS'error'
p161
(lp162
(dp163
S'y'
p164
(lp165
F0.0029561803771152332
aF0.002882300794990915
aF0.0037938146719049947
aF0.004668388757756893
aF0.005871427329954936
aF0.007639045397189833
aF0.009425133359955783
aF0.010591232141091634
aF0.011757330922227523
aF0.012941899598894462
aF0.014783397248253704
aF0.016250255672439064
aF0.017735583992155537
aF0.019429322477266087
aF0.02183539962166218
aF0.024204536974996083
aF0.02595368514669987
aF0.028322822500033776
aF0.030381965262552636
aF0.03269569292929328
aF0.03535635497791115
aF0.03677703866326882
aF0.03825313203521972
aF0.03940076092082452
aF0.04058532959749146
aF0.04233447776919528
aF0.043463636759268946
aF0.04528666451309712
aF0.04761886207536886
aF0.04931260056047941
aF0.05168173791381329
aF0.05337547639892383
aF0.05570767396119558
aF0.05740141244630614
aF0.05973361000857788
aF0.06261191717035537
aF0.06490717494156494
aF0.06660091342667548
aF0.069479220588453
aF0.07290363734973626
aF0.07518042522541475
aF0.07683722391946313
aF0.07909554189961053
aF0.0807523405936589
aF0.08295524888721306
aF0.08464898737232361
aF0.08687036556140885
aF0.08849022446439506
aF0.09073007254901137
aF0.09225758197434218
aF0.09380356129520404
aF0.09595105990216492
aF0.09808008861359474
aF0.09844149925778967
aF0.10049664838709513
aF0.1025702674119317
aF0.10285779847400227
aF0.10380225850876514
aF0.10463589917034148
aF0.10483108075475664
aF0.10617389122477658
aF0.1060406083228456
aF0.10610650063854318
aF0.10516852959967127
aF0.10474372200245631
aF0.10369892522361127
aF0.10270953813135947
aF0.10170168114357661
aF0.10138769291954818
aF0.09948279831716893
aF0.09778107256563161
aF0.09618093123951527
aF0.09525618878162224
aF0.09331834802139422
aF0.09068663849741175
aF0.08907726222352987
aF0.08673707739483139
aF0.08379537328003385
aF0.08120060354711355
aF0.07860583381419325
aF0.07639493825421231
aF0.07356405351260131
aF0.0707146988754592
aF0.06717147547456265
aF0.06434059073295163
aF0.05942809970007729
aF0.055921816090242916
aF0.05031545629361414
aF0.04208138060621627
aF0.033939654396473826
aF0.02718566571424027
aF0.01981168785037662
aF0.009846933886806034
aF0.004554562314205686
aF-0.0013577984400247527
aF-0.007908618271416385
aF-0.015644006779474983
aF-0.018780892478687635
aF-0.020530040650391452
aF-0.020983800772241802
aF-0.020105233053176522
aF-0.019846654515741333
aF-0.01894961690114497
aF-0.01670178155010191
aF-0.015513219240221556
aF-0.014343126825872313
aF-0.011382952815543681
aF-0.009098177673438429
aF-0.006138003663109854
aF-0.0038901683120667603
aF-0.0016977426476169329
aF-0.00016224595585935162
aF0.004204135477509197
aF0.007145839592306722
aF0.009393674943349814
aF0.011659980189923985
aF0.01600789172776145
aF0.018292666869866678
aF0.020558972116440852
aF0.024541479376870037
aF0.027885527560138033
aF0.0301518328067122
aF0.03280201222622576
aF0.035433721750208244
aF0.03905082473322909
aF0.04071561069370425
aF0.04371272449509504
aF0.046052909323793564
aF0.047625345806613276
aF0.050714809085659465
aF0.052379595046134604
aF0.0547382497703642
aF0.05705996470353161
aF0.05804935179578341
aF0.0591680281567528
aF0.06079587432616577
aF0.06081833785491025
aF0.06299628725704237
aF0.06278263577709611
aF0.06324438316537324
aF0.06384989608468564
aF0.06382618487460237
aF0.06358482855135951
aF0.06298730289847389
aF0.06184366764608248
aF0.061301551679790095
aF0.06066708623584229
aF0.059667216514486185
aF0.058722756479723325
aF0.05661219766382461
aF0.0551031581340249
aF0.05401093893501337
aF0.052937189631532926
aF0.051335800624077804
aF0.04911442243499256
aF0.04747609363647527
aF0.045837764837957984
aF0.04359791675334166
aF0.04190417826823108
aF0.039608920497021555
aF0.037276722934749804
aF0.035601454345170334
aF0.0332877266784297
aF0.030427889412183256
aF0.02928026052657851
aF0.027549582250405796
aF0.025198914792602944
aF0.02356058599408566
aF0.02181143782238187
aF0.020062289650678054
aF0.018951600556135432
aF0.017183982488900563
aF0.015763298803542894
aF0.014361085013716308
aF0.012593466946481415
aF0.010862788670308706
aF0.009187520080729232
aF0.008039891195124452
aF0.0068922623095196665
aF0.0064015623966071685
aF0.005253933511002387
aF0.004763233598089854
aF0.0033056101216700287
aF0.002467975826880291
aF0.001320346941275489
aF0.00020965784673286487
aF-0.0009379710388719442
aF-0.0011279113087349195
aF-0.0019747805512901916
aF-0.002210895559980918
aF-0.0017716117004482703
aF-0.0029561803771152298
asS'x'
p166
(lp167
F0.9998312585891919
aF0.9971919255600368
aF0.9945244689624136
aF0.9905373458502132
aF0.9865408482151902
aF0.9792264352480778
aF0.9725718555382544
aF0.9672556913886537
aF0.9619395272390532
aF0.9572831963467411
aF0.9526081164087841
aF0.9462928278504275
aF0.9406373725493598
aF0.9306836265530927
aF0.9226906312830464
aF0.9133779694984225
aF0.9054037232740216
aF0.8960910614893978
aF0.8874476074848856
aF0.8761554459283954
aF0.8655137431063715
aF0.8575488714047933
aF0.8515634994750811
aF0.8455875020681918
aF0.8409311711758799
aF0.832956924951479
aF0.8263210942873009
aF0.8209861810920549
aF0.8103538527928535
aF0.8004001067965864
aF0.7910874450119626
aF0.7811336990156955
aF0.7705013707164943
aF0.7605476247202271
aF0.7499152964210257
aF0.7353052195324467
aF0.7233532247186679
aF0.7133994787224007
aF0.6987894018338218
aF0.6802015763558648
aF0.6675897482847972
aF0.6563163357739525
aF0.6430446744455964
aF0.6317712619347517
aF0.6165201008345293
aF0.6065663548382623
aF0.5919750269953283
aF0.5793819479699063
aF0.5654504533842614
aF0.5495582080723955
aF0.5343257960178185
aF0.5170951351457298
aF0.49920464101635253
aF0.4886285598540874
aF0.4680987326955549
aF0.44822873879431147
aF0.43501332460289127
aF0.42177916136582577
aF0.40458599858502786
aF0.38807141810716395
aF0.3655808402224108
aF0.3490756342673696
aF0.32794222098848463
aF0.3061770980207789
aF0.29100093310313785
aF0.27716318374571974
aF0.2653049341601678
aF0.2527868513173271
aF0.2415696859434186
aF0.22049251980146975
aF0.20667351948969692
aF0.19648360209301222
aF0.18693476890797087
aF0.17642430940546444
aF0.16461293243402592
aF0.15409309840869684
aF0.14095268039985817
aF0.12981051120853104
aF0.11931880075166999
aF0.1088270902948089
aF0.10030550508699139
aF0.09312233543939671
aF0.08527933253451331
aF0.0761354121606978
aF0.0689522425131031
aF0.05786632045871209
aF0.05004206659947405
aF0.03765522707615092
aF0.025343383735409244
aF0.01633070668111124
aF0.00991986456467747
aF0.004847438008466558
aF0.0011696741494145802
aF0.0
aF0.00016874141080826406
aF0.0010160651245506318
aF0.006519719730604884
aF0.0118921310171416
aF0.019866377241542547
aF0.027143292117364062
aF0.03504254215918356
aF0.0442802077612259
aF0.05283929106033414
aF0.06268054278272912
aF0.06991058504443722
aF0.07648079404885655
aF0.08828279649747238
aF0.09944371473444487
aF0.11124571718306069
aF0.1210869689054557
aF0.1289487208559845
aF0.13682922185215862
aF0.15189289249592747
aF0.16303506168725457
aF0.17287631340964954
aF0.18337739838933328
aF0.19778123577581336
aF0.20894215401278582
aF0.21944323899246954
aF0.2325367843871948
aF0.2463089120848542
aF0.2568099970645379
aF0.26928120729326516
aF0.2810925842647037
aF0.29287583766767417
aF0.3053751714648695
aF0.31849684042806287
aF0.33163725843690156
aF0.34083742594765315
aF0.3572582611972901
aF0.3697575949944855
aF0.3835578462606128
aF0.39603843101216285
aF0.4078966805977148
aF0.42437376298428786
aF0.43555343026690574
aF0.4480996366782144
aF0.46718792852547447
aF0.48304267574604953
aF0.499538507178268
aF0.5094266315147763
aF0.5203232547828632
aF0.5351882521175052
aF0.5490728740890367
aF0.566935244649946
aF0.5827993663933438
aF0.5953643218502979
aF0.6066189853154972
aF0.6198531485525627
aF0.6384034759392289
aF0.6549555545083833
aF0.662911051687139
aF0.6715263821231833
aF0.6847792944058941
aF0.6993706222488281
aF0.7113038680169613
aF0.7232371137850946
aF0.7371686083707397
aF0.7471223543670068
aF0.7590743491807858
aF0.769706677479987
aF0.7803202567335428
aF0.7916124182900328
aF0.8068823284359006
aF0.81285832584279
aF0.8214924053244796
aF0.8314649003663922
aF0.8433981461345256
aF0.8513723923589266
aF0.8593466385833275
aF0.8666423025047945
aF0.8739567154719065
aF0.8819215871734848
aF0.8905462921323518
aF0.897860705099464
aF0.9064947845811537
aF0.9171083638347097
aF0.923084361241599
aF0.9290603586484882
aF0.9350176070097325
aF0.9409936044166216
aF0.9469508527778658
aF0.9535960579648667
aF0.9589028475916446
aF0.964878844998534
aF0.9721745089200007
aF0.97815050632689
aF0.9831086302793783
aF0.988085503277512
aF0.9913940440867784
aF0.995343669107688
aF1.0
asa(dp168
g164
(lp169
F0.0029561803771152332
aF0.002882300794990915
aF0.0037938146719049947
aF0.004668388757756893
aF0.005871427329954936
aF0.007639045397189833
aF0.009425133359955783
aF0.010591232141091634
aF0.011757330922227523
aF0.012941899598894462
aF0.014783397248253704
aF0.016250255672439064
aF0.017735583992155537
aF0.019429322477266087
aF0.02183539962166218
aF0.024204536974996083
aF0.02595368514669987
aF0.028322822500033776
aF0.030381965262552636
aF0.03269569292929328
aF0.03535635497791115
aF0.03677703866326882
aF0.03825313203521972
aF0.03940076092082452
aF0.04058532959749146
aF0.04233447776919528
aF0.043463636759268946
aF0.04528666451309712
aF0.04761886207536886
aF0.04931260056047941
aF0.05168173791381329
aF0.05337547639892383
aF0.05570767396119558
aF0.05740141244630614
aF0.05973361000857788
aF0.06261191717035537
aF0.06490717494156494
aF0.06660091342667548
aF0.069479220588453
aF0.07290363734973626
aF0.07518042522541475
aF0.07683722391946313
aF0.07909554189961053
aF0.0807523405936589
aF0.08295524888721306
aF0.08464898737232361
aF0.08687036556140885
aF0.08849022446439506
aF0.09073007254901137
aF0.09225758197434218
aF0.09380356129520404
aF0.09595105990216492
aF0.09808008861359474
aF0.09844149925778967
aF0.10049664838709513
aF0.1025702674119317
aF0.10285779847400227
aF0.10380225850876514
aF0.10463589917034148
aF0.10483108075475664
aF0.10617389122477658
aF0.1060406083228456
aF0.10610650063854318
aF0.10516852959967127
aF0.10474372200245631
aF0.10369892522361127
aF0.10270953813135947
aF0.10170168114357661
aF0.10138769291954818
aF0.09948279831716893
aF0.09778107256563161
aF0.09618093123951527
aF0.09525618878162224
aF0.09331834802139422
aF0.09068663849741175
aF0.08907726222352987
aF0.08673707739483139
aF0.08379537328003385
aF0.08120060354711355
aF0.07860583381419325
aF0.07639493825421231
aF0.07356405351260131
aF0.0707146988754592
aF0.06717147547456265
aF0.06434059073295163
aF0.05942809970007729
aF0.055921816090242916
aF0.05031545629361414
aF0.04208138060621627
aF0.033939654396473826
aF0.02718566571424027
aF0.01981168785037662
aF0.009846933886806034
aF0.004554562314205686
aF-0.0013577984400247527
aF-0.007908618271416385
aF-0.015644006779474983
aF-0.018780892478687635
aF-0.020530040650391452
aF-0.020983800772241802
aF-0.020105233053176522
aF-0.019846654515741333
aF-0.01894961690114497
aF-0.01670178155010191
aF-0.015513219240221556
aF-0.014343126825872313
aF-0.011382952815543681
aF-0.009098177673438429
aF-0.006138003663109854
aF-0.0038901683120667603
aF-0.0016977426476169329
aF-0.00016224595585935162
aF0.004204135477509197
aF0.007145839592306722
aF0.009393674943349814
aF0.011659980189923985
aF0.01600789172776145
aF0.018292666869866678
aF0.020558972116440852
aF0.024541479376870037
aF0.027885527560138033
aF0.0301518328067122
aF0.03280201222622576
aF0.035433721750208244
aF0.03905082473322909
aF0.04071561069370425
aF0.04371272449509504
aF0.046052909323793564
aF0.047625345806613276
aF0.050714809085659465
aF0.052379595046134604
aF0.0547382497703642
aF0.05705996470353161
aF0.05804935179578341
aF0.0591680281567528
aF0.06079587432616577
aF0.06081833785491025
aF0.06299628725704237
aF0.06278263577709611
aF0.06324438316537324
aF0.06384989608468564
aF0.06382618487460237
aF0.06358482855135951
aF0.06298730289847389
aF0.06184366764608248
aF0.061301551679790095
aF0.06066708623584229
aF0.059667216514486185
aF0.058722756479723325
aF0.05661219766382461
aF0.0551031581340249
aF0.05401093893501337
aF0.052937189631532926
aF0.051335800624077804
aF0.04911442243499256
aF0.04747609363647527
aF0.045837764837957984
aF0.04359791675334166
aF0.04190417826823108
aF0.039608920497021555
aF0.037276722934749804
aF0.035601454345170334
aF0.0332877266784297
aF0.030427889412183256
aF0.02928026052657851
aF0.027549582250405796
aF0.025198914792602944
aF0.02356058599408566
aF0.02181143782238187
aF0.020062289650678054
aF0.018951600556135432
aF0.017183982488900563
aF0.015763298803542894
aF0.014361085013716308
aF0.012593466946481415
aF0.010862788670308706
aF0.009187520080729232
aF0.008039891195124452
aF0.0068922623095196665
aF0.0064015623966071685
aF0.005253933511002387
aF0.004763233598089854
aF0.0033056101216700287
aF0.002467975826880291
aF0.001320346941275489
aF0.00020965784673286487
aF-0.0009379710388719442
aF-0.0011279113087349195
aF-0.0019747805512901916
aF-0.002210895559980918
aF-0.0017716117004482703
aF-0.0029561803771152298
asg166
(lp170
F0.9998312585891919
aF0.9971919255600368
aF0.9945244689624136
aF0.9905373458502132
aF0.9865408482151902
aF0.9792264352480778
aF0.9725718555382544
aF0.9672556913886537
aF0.9619395272390532
aF0.9572831963467411
aF0.9526081164087841
aF0.9462928278504275
aF0.9406373725493598
aF0.9306836265530927
aF0.9226906312830464
aF0.9133779694984225
aF0.9054037232740216
aF0.8960910614893978
aF0.8874476074848856
aF0.8761554459283954
aF0.8655137431063715
aF0.8575488714047933
aF0.8515634994750811
aF0.8455875020681918
aF0.8409311711758799
aF0.832956924951479
aF0.8263210942873009
aF0.8209861810920549
aF0.8103538527928535
aF0.8004001067965864
aF0.7910874450119626
aF0.7811336990156955
aF0.7705013707164943
aF0.7605476247202271
aF0.7499152964210257
aF0.7353052195324467
aF0.7233532247186679
aF0.7133994787224007
aF0.6987894018338218
aF0.6802015763558648
aF0.6675897482847972
aF0.6563163357739525
aF0.6430446744455964
aF0.6317712619347517
aF0.6165201008345293
aF0.6065663548382623
aF0.5919750269953283
aF0.5793819479699063
aF0.5654504533842614
aF0.5495582080723955
aF0.5343257960178185
aF0.5170951351457298
aF0.49920464101635253
aF0.4886285598540874
aF0.4680987326955549
aF0.44822873879431147
aF0.43501332460289127
aF0.42177916136582577
aF0.40458599858502786
aF0.38807141810716395
aF0.3655808402224108
aF0.3490756342673696
aF0.32794222098848463
aF0.3061770980207789
aF0.29100093310313785
aF0.27716318374571974
aF0.2653049341601678
aF0.2527868513173271
aF0.2415696859434186
aF0.22049251980146975
aF0.20667351948969692
aF0.19648360209301222
aF0.18693476890797087
aF0.17642430940546444
aF0.16461293243402592
aF0.15409309840869684
aF0.14095268039985817
aF0.12981051120853104
aF0.11931880075166999
aF0.1088270902948089
aF0.10030550508699139
aF0.09312233543939671
aF0.08527933253451331
aF0.0761354121606978
aF0.0689522425131031
aF0.05786632045871209
aF0.05004206659947405
aF0.03765522707615092
aF0.025343383735409244
aF0.01633070668111124
aF0.00991986456467747
aF0.004847438008466558
aF0.0011696741494145802
aF0.0
aF0.00016874141080826406
aF0.0010160651245506318
aF0.006519719730604884
aF0.0118921310171416
aF0.019866377241542547
aF0.027143292117364062
aF0.03504254215918356
aF0.0442802077612259
aF0.05283929106033414
aF0.06268054278272912
aF0.06991058504443722
aF0.07648079404885655
aF0.08828279649747238
aF0.09944371473444487
aF0.11124571718306069
aF0.1210869689054557
aF0.1289487208559845
aF0.13682922185215862
aF0.15189289249592747
aF0.16303506168725457
aF0.17287631340964954
aF0.18337739838933328
aF0.19778123577581336
aF0.20894215401278582
aF0.21944323899246954
aF0.2325367843871948
aF0.2463089120848542
aF0.2568099970645379
aF0.26928120729326516
aF0.2810925842647037
aF0.29287583766767417
aF0.3053751714648695
aF0.31849684042806287
aF0.33163725843690156
aF0.34083742594765315
aF0.3572582611972901
aF0.3697575949944855
aF0.3835578462606128
aF0.39603843101216285
aF0.4078966805977148
aF0.42437376298428786
aF0.43555343026690574
aF0.4480996366782144
aF0.46718792852547447
aF0.48304267574604953
aF0.499538507178268
aF0.5094266315147763
aF0.5203232547828632
aF0.5351882521175052
aF0.5490728740890367
aF0.566935244649946
aF0.5827993663933438
aF0.5953643218502979
aF0.6066189853154972
aF0.6198531485525627
aF0.6384034759392289
aF0.6549555545083833
aF0.662911051687139
aF0.6715263821231833
aF0.6847792944058941
aF0.6993706222488281
aF0.7113038680169613
aF0.7232371137850946
aF0.7371686083707397
aF0.7471223543670068
aF0.7590743491807858
aF0.769706677479987
aF0.7803202567335428
aF0.7916124182900328
aF0.8068823284359006
aF0.81285832584279
aF0.8214924053244796
aF0.8314649003663922
aF0.8433981461345256
aF0.8513723923589266
aF0.8593466385833275
aF0.8666423025047945
aF0.8739567154719065
aF0.8819215871734848
aF0.8905462921323518
aF0.897860705099464
aF0.9064947845811537
aF0.9171083638347097
aF0.923084361241599
aF0.9290603586484882
aF0.9350176070097325
aF0.9409936044166216
aF0.9469508527778658
aF0.9535960579648667
aF0.9589028475916446
aF0.964878844998534
aF0.9721745089200007
aF0.97815050632689
aF0.9831086302793783
aF0.988085503277512
aF0.9913940440867784
aF0.995343669107688
aF1.0
asa(dp171
g164
(lp172
F0.0029561803771152332
aF0.002882300794990915
aF0.0037938146719049947
aF0.004668388757756893
aF0.005871427329954936
aF0.007639045397189833
aF0.009425133359955783
aF0.010591232141091634
aF0.011757330922227523
aF0.012941899598894462
aF0.014783397248253704
aF0.016250255672439064
aF0.017735583992155537
aF0.019429322477266087
aF0.02183539962166218
aF0.024204536974996083
aF0.02595368514669987
aF0.028322822500033776
aF0.030381965262552636
aF0.03269569292929328
aF0.03535635497791115
aF0.03677703866326882
aF0.03825313203521972
aF0.03940076092082452
aF0.04058532959749146
aF0.04233447776919528
aF0.043463636759268946
aF0.04528666451309712
aF0.04761886207536886
aF0.04931260056047941
aF0.05168173791381329
aF0.05337547639892383
aF0.05570767396119558
aF0.05740141244630614
aF0.05973361000857788
aF0.06261191717035537
aF0.06490717494156494
aF0.06660091342667548
aF0.069479220588453
aF0.07290363734973626
aF0.07518042522541475
aF0.07683722391946313
aF0.07909554189961053
aF0.0807523405936589
aF0.08295524888721306
aF0.08464898737232361
aF0.08687036556140885
aF0.08849022446439506
aF0.09073007254901137
aF0.09225758197434218
aF0.09380356129520404
aF0.09595105990216492
aF0.09808008861359474
aF0.09844149925778967
aF0.10049664838709513
aF0.1025702674119317
aF0.10285779847400227
aF0.10380225850876514
aF0.10463589917034148
aF0.10483108075475664
aF0.10617389122477658
aF0.1060406083228456
aF0.10610650063854318
aF0.10516852959967127
aF0.10474372200245631
aF0.10369892522361127
aF0.10270953813135947
aF0.10170168114357661
aF0.10138769291954818
aF0.09948279831716893
aF0.09778107256563161
aF0.09618093123951527
aF0.09525618878162224
aF0.09331834802139422
aF0.09068663849741175
aF0.08907726222352987
aF0.08673707739483139
aF0.08379537328003385
aF0.08120060354711355
aF0.07860583381419325
aF0.07639493825421231
aF0.07356405351260131
aF0.0707146988754592
aF0.06717147547456265
aF0.06434059073295163
aF0.05942809970007729
aF0.055921816090242916
aF0.05031545629361414
aF0.04208138060621627
aF0.033939654396473826
aF0.02718566571424027
aF0.01981168785037662
aF0.009846933886806034
aF0.004554562314205686
aF-0.0013577984400247527
aF-0.007908618271416385
aF-0.015644006779474983
aF-0.018780892478687635
aF-0.020530040650391452
aF-0.020983800772241802
aF-0.020105233053176522
aF-0.019846654515741333
aF-0.01894961690114497
aF-0.01670178155010191
aF-0.015513219240221556
aF-0.014343126825872313
aF-0.011382952815543681
aF-0.009098177673438429
aF-0.006138003663109854
aF-0.0038901683120667603
aF-0.0016977426476169329
aF-0.00016224595585935162
aF0.004204135477509197
aF0.007145839592306722
aF0.009393674943349814
aF0.011659980189923985
aF0.01600789172776145
aF0.018292666869866678
aF0.020558972116440852
aF0.024541479376870037
aF0.027885527560138033
aF0.0301518328067122
aF0.03280201222622576
aF0.035433721750208244
aF0.03905082473322909
aF0.04071561069370425
aF0.04371272449509504
aF0.046052909323793564
aF0.047625345806613276
aF0.050714809085659465
aF0.052379595046134604
aF0.0547382497703642
aF0.05705996470353161
aF0.05804935179578341
aF0.0591680281567528
aF0.06079587432616577
aF0.06081833785491025
aF0.06299628725704237
aF0.06278263577709611
aF0.06324438316537324
aF0.06384989608468564
aF0.06382618487460237
aF0.06358482855135951
aF0.06298730289847389
aF0.06184366764608248
aF0.061301551679790095
aF0.06066708623584229
aF0.059667216514486185
aF0.058722756479723325
aF0.05661219766382461
aF0.0551031581340249
aF0.05401093893501337
aF0.052937189631532926
aF0.051335800624077804
aF0.04911442243499256
aF0.04747609363647527
aF0.045837764837957984
aF0.04359791675334166
aF0.04190417826823108
aF0.039608920497021555
aF0.037276722934749804
aF0.035601454345170334
aF0.0332877266784297
aF0.030427889412183256
aF0.02928026052657851
aF0.027549582250405796
aF0.025198914792602944
aF0.02356058599408566
aF0.02181143782238187
aF0.020062289650678054
aF0.018951600556135432
aF0.017183982488900563
aF0.015763298803542894
aF0.014361085013716308
aF0.012593466946481415
aF0.010862788670308706
aF0.009187520080729232
aF0.008039891195124452
aF0.0068922623095196665
aF0.0064015623966071685
aF0.005253933511002387
aF0.004763233598089854
aF0.0033056101216700287
aF0.002467975826880291
aF0.001320346941275489
aF0.00020965784673286487
aF-0.0009379710388719442
aF-0.0011279113087349195
aF-0.0019747805512901916
aF-0.002210895559980918
aF-0.0017716117004482703
aF-0.0029561803771152298
asg166
(lp173
F0.9998312585891919
aF0.9971919255600368
aF0.9945244689624136
aF0.9905373458502132
aF0.9865408482151902
aF0.9792264352480778
aF0.9725718555382544
aF0.9672556913886537
aF0.9619395272390532
aF0.9572831963467411
aF0.9526081164087841
aF0.9462928278504275
aF0.9406373725493598
aF0.9306836265530927
aF0.9226906312830464
aF0.9133779694984225
aF0.9054037232740216
aF0.8960910614893978
aF0.8874476074848856
aF0.8761554459283954
aF0.8655137431063715
aF0.8575488714047933
aF0.8515634994750811
aF0.8455875020681918
aF0.8409311711758799
aF0.832956924951479
aF0.8263210942873009
aF0.8209861810920549
aF0.8103538527928535
aF0.8004001067965864
aF0.7910874450119626
aF0.7811336990156955
aF0.7705013707164943
aF0.7605476247202271
aF0.7499152964210257
aF0.7353052195324467
aF0.7233532247186679
aF0.7133994787224007
aF0.6987894018338218
aF0.6802015763558648
aF0.6675897482847972
aF0.6563163357739525
aF0.6430446744455964
aF0.6317712619347517
aF0.6165201008345293
aF0.6065663548382623
aF0.5919750269953283
aF0.5793819479699063
aF0.5654504533842614
aF0.5495582080723955
aF0.5343257960178185
aF0.5170951351457298
aF0.49920464101635253
aF0.4886285598540874
aF0.4680987326955549
aF0.44822873879431147
aF0.43501332460289127
aF0.42177916136582577
aF0.40458599858502786
aF0.38807141810716395
aF0.3655808402224108
aF0.3490756342673696
aF0.32794222098848463
aF0.3061770980207789
aF0.29100093310313785
aF0.27716318374571974
aF0.2653049341601678
aF0.2527868513173271
aF0.2415696859434186
aF0.22049251980146975
aF0.20667351948969692
aF0.19648360209301222
aF0.18693476890797087
aF0.17642430940546444
aF0.16461293243402592
aF0.15409309840869684
aF0.14095268039985817
aF0.12981051120853104
aF0.11931880075166999
aF0.1088270902948089
aF0.10030550508699139
aF0.09312233543939671
aF0.08527933253451331
aF0.0761354121606978
aF0.0689522425131031
aF0.05786632045871209
aF0.05004206659947405
aF0.03765522707615092
aF0.025343383735409244
aF0.01633070668111124
aF0.00991986456467747
aF0.004847438008466558
aF0.0011696741494145802
aF0.0
aF0.00016874141080826406
aF0.0010160651245506318
aF0.006519719730604884
aF0.0118921310171416
aF0.019866377241542547
aF0.027143292117364062
aF0.03504254215918356
aF0.0442802077612259
aF0.05283929106033414
aF0.06268054278272912
aF0.06991058504443722
aF0.07648079404885655
aF0.08828279649747238
aF0.09944371473444487
aF0.11124571718306069
aF0.1210869689054557
aF0.1289487208559845
aF0.13682922185215862
aF0.15189289249592747
aF0.16303506168725457
aF0.17287631340964954
aF0.18337739838933328
aF0.19778123577581336
aF0.20894215401278582
aF0.21944323899246954
aF0.2325367843871948
aF0.2463089120848542
aF0.2568099970645379
aF0.26928120729326516
aF0.2810925842647037
aF0.29287583766767417
aF0.3053751714648695
aF0.31849684042806287
aF0.33163725843690156
aF0.34083742594765315
aF0.3572582611972901
aF0.3697575949944855
aF0.3835578462606128
aF0.39603843101216285
aF0.4078966805977148
aF0.42437376298428786
aF0.43555343026690574
aF0.4480996366782144
aF0.46718792852547447
aF0.48304267574604953
aF0.499538507178268
aF0.5094266315147763
aF0.5203232547828632
aF0.5351882521175052
aF0.5490728740890367
aF0.566935244649946
aF0.5827993663933438
aF0.5953643218502979
aF0.6066189853154972
aF0.6198531485525627
aF0.6384034759392289
aF0.6549555545083833
aF0.662911051687139
aF0.6715263821231833
aF0.6847792944058941
aF0.6993706222488281
aF0.7113038680169613
aF0.7232371137850946
aF0.7371686083707397
aF0.7471223543670068
aF0.7590743491807858
aF0.769706677479987
aF0.7803202567335428
aF0.7916124182900328
aF0.8068823284359006
aF0.81285832584279
aF0.8214924053244796
aF0.8314649003663922
aF0.8433981461345256
aF0.8513723923589266
aF0.8593466385833275
aF0.8666423025047945
aF0.8739567154719065
aF0.8819215871734848
aF0.8905462921323518
aF0.897860705099464
aF0.9064947845811537
aF0.9171083638347097
aF0.923084361241599
aF0.9290603586484882
aF0.9350176070097325
aF0.9409936044166216
aF0.9469508527778658
aF0.9535960579648667
aF0.9589028475916446
aF0.964878844998534
aF0.9721745089200007
aF0.97815050632689
aF0.9831086302793783
aF0.988085503277512
aF0.9913940440867784
aF0.995343669107688
aF1.0
asa(dp174
g164
(lp175
F0.0029561803771152332
aF0.002882300794990915
aF0.0037938146719049947
aF0.004668388757756893
aF0.005871427329954936
aF0.007639045397189833
aF0.009425133359955783
aF0.010591232141091634
aF0.011757330922227523
aF0.012941899598894462
aF0.014783397248253704
aF0.016250255672439064
aF0.017735583992155537
aF0.019429322477266087
aF0.02183539962166218
aF0.024204536974996083
aF0.02595368514669987
aF0.028322822500033776
aF0.030381965262552636
aF0.03269569292929328
aF0.03535635497791115
aF0.03677703866326882
aF0.03825313203521972
aF0.03940076092082452
aF0.04058532959749146
aF0.04233447776919528
aF0.043463636759268946
aF0.04528666451309712
aF0.04761886207536886
aF0.04931260056047941
aF0.05168173791381329
aF0.05337547639892383
aF0.05570767396119558
aF0.05740141244630614
aF0.05973361000857788
aF0.06261191717035537
aF0.06490717494156494
aF0.06660091342667548
aF0.069479220588453
aF0.07290363734973626
aF0.07518042522541475
aF0.07683722391946313
aF0.07909554189961053
aF0.0807523405936589
aF0.08295524888721306
aF0.08464898737232361
aF0.08687036556140885
aF0.08849022446439506
aF0.09073007254901137
aF0.09225758197434218
aF0.09380356129520404
aF0.09595105990216492
aF0.09808008861359474
aF0.09844149925778967
aF0.10049664838709513
aF0.1025702674119317
aF0.10285779847400227
aF0.10380225850876514
aF0.10463589917034148
aF0.10483108075475664
aF0.10617389122477658
aF0.1060406083228456
aF0.10610650063854318
aF0.10516852959967127
aF0.10474372200245631
aF0.10369892522361127
aF0.10270953813135947
aF0.10170168114357661
aF0.10138769291954818
aF0.09948279831716893
aF0.09778107256563161
aF0.09618093123951527
aF0.09525618878162224
aF0.09331834802139422
aF0.09068663849741175
aF0.08907726222352987
aF0.08673707739483139
aF0.08379537328003385
aF0.08120060354711355
aF0.07860583381419325
aF0.07639493825421231
aF0.07356405351260131
aF0.0707146988754592
aF0.06717147547456265
aF0.06434059073295163
aF0.05942809970007729
aF0.055921816090242916
aF0.05031545629361414
aF0.04208138060621627
aF0.033939654396473826
aF0.02718566571424027
aF0.01981168785037662
aF0.009846933886806034
aF0.004554562314205686
aF-0.0013577984400247527
aF-0.007908618271416385
aF-0.015644006779474983
aF-0.018780892478687635
aF-0.020530040650391452
aF-0.020983800772241802
aF-0.020105233053176522
aF-0.019846654515741333
aF-0.01894961690114497
aF-0.01670178155010191
aF-0.015513219240221556
aF-0.014343126825872313
aF-0.011382952815543681
aF-0.009098177673438429
aF-0.006138003663109854
aF-0.0038901683120667603
aF-0.0016977426476169329
aF-0.00016224595585935162
aF0.004204135477509197
aF0.007145839592306722
aF0.009393674943349814
aF0.011659980189923985
aF0.01600789172776145
aF0.018292666869866678
aF0.020558972116440852
aF0.024541479376870037
aF0.027885527560138033
aF0.0301518328067122
aF0.03280201222622576
aF0.035433721750208244
aF0.03905082473322909
aF0.04071561069370425
aF0.04371272449509504
aF0.046052909323793564
aF0.047625345806613276
aF0.050714809085659465
aF0.052379595046134604
aF0.0547382497703642
aF0.05705996470353161
aF0.05804935179578341
aF0.0591680281567528
aF0.06079587432616577
aF0.06081833785491025
aF0.06299628725704237
aF0.06278263577709611
aF0.06324438316537324
aF0.06384989608468564
aF0.06382618487460237
aF0.06358482855135951
aF0.06298730289847389
aF0.06184366764608248
aF0.061301551679790095
aF0.06066708623584229
aF0.059667216514486185
aF0.058722756479723325
aF0.05661219766382461
aF0.0551031581340249
aF0.05401093893501337
aF0.052937189631532926
aF0.051335800624077804
aF0.04911442243499256
aF0.04747609363647527
aF0.045837764837957984
aF0.04359791675334166
aF0.04190417826823108
aF0.039608920497021555
aF0.037276722934749804
aF0.035601454345170334
aF0.0332877266784297
aF0.030427889412183256
aF0.02928026052657851
aF0.027549582250405796
aF0.025198914792602944
aF0.02356058599408566
aF0.02181143782238187
aF0.020062289650678054
aF0.018951600556135432
aF0.017183982488900563
aF0.015763298803542894
aF0.014361085013716308
aF0.012593466946481415
aF0.010862788670308706
aF0.009187520080729232
aF0.008039891195124452
aF0.0068922623095196665
aF0.0064015623966071685
aF0.005253933511002387
aF0.004763233598089854
aF0.0033056101216700287
aF0.002467975826880291
aF0.001320346941275489
aF0.00020965784673286487
aF-0.0009379710388719442
aF-0.0011279113087349195
aF-0.0019747805512901916
aF-0.002210895559980918
aF-0.0017716117004482703
aF-0.0029561803771152298
asg166
(lp176
F0.9998312585891919
aF0.9971919255600368
aF0.9945244689624136
aF0.9905373458502132
aF0.9865408482151902
aF0.9792264352480778
aF0.9725718555382544
aF0.9672556913886537
aF0.9619395272390532
aF0.9572831963467411
aF0.9526081164087841
aF0.9462928278504275
aF0.9406373725493598
aF0.9306836265530927
aF0.9226906312830464
aF0.9133779694984225
aF0.9054037232740216
aF0.8960910614893978
aF0.8874476074848856
aF0.8761554459283954
aF0.8655137431063715
aF0.8575488714047933
aF0.8515634994750811
aF0.8455875020681918
aF0.8409311711758799
aF0.832956924951479
aF0.8263210942873009
aF0.8209861810920549
aF0.8103538527928535
aF0.8004001067965864
aF0.7910874450119626
aF0.7811336990156955
aF0.7705013707164943
aF0.7605476247202271
aF0.7499152964210257
aF0.7353052195324467
aF0.7233532247186679
aF0.7133994787224007
aF0.6987894018338218
aF0.6802015763558648
aF0.6675897482847972
aF0.6563163357739525
aF0.6430446744455964
aF0.6317712619347517
aF0.6165201008345293
aF0.6065663548382623
aF0.5919750269953283
aF0.5793819479699063
aF0.5654504533842614
aF0.5495582080723955
aF0.5343257960178185
aF0.5170951351457298
aF0.49920464101635253
aF0.4886285598540874
aF0.4680987326955549
aF0.44822873879431147
aF0.43501332460289127
aF0.42177916136582577
aF0.40458599858502786
aF0.38807141810716395
aF0.3655808402224108
aF0.3490756342673696
aF0.32794222098848463
aF0.3061770980207789
aF0.29100093310313785
aF0.27716318374571974
aF0.2653049341601678
aF0.2527868513173271
aF0.2415696859434186
aF0.22049251980146975
aF0.20667351948969692
aF0.19648360209301222
aF0.18693476890797087
aF0.17642430940546444
aF0.16461293243402592
aF0.15409309840869684
aF0.14095268039985817
aF0.12981051120853104
aF0.11931880075166999
aF0.1088270902948089
aF0.10030550508699139
aF0.09312233543939671
aF0.08527933253451331
aF0.0761354121606978
aF0.0689522425131031
aF0.05786632045871209
aF0.05004206659947405
aF0.03765522707615092
aF0.025343383735409244
aF0.01633070668111124
aF0.00991986456467747
aF0.004847438008466558
aF0.0011696741494145802
aF0.0
aF0.00016874141080826406
aF0.0010160651245506318
aF0.006519719730604884
aF0.0118921310171416
aF0.019866377241542547
aF0.027143292117364062
aF0.03504254215918356
aF0.0442802077612259
aF0.05283929106033414
aF0.06268054278272912
aF0.06991058504443722
aF0.07648079404885655
aF0.08828279649747238
aF0.09944371473444487
aF0.11124571718306069
aF0.1210869689054557
aF0.1289487208559845
aF0.13682922185215862
aF0.15189289249592747
aF0.16303506168725457
aF0.17287631340964954
aF0.18337739838933328
aF0.19778123577581336
aF0.20894215401278582
aF0.21944323899246954
aF0.2325367843871948
aF0.2463089120848542
aF0.2568099970645379
aF0.26928120729326516
aF0.2810925842647037
aF0.29287583766767417
aF0.3053751714648695
aF0.31849684042806287
aF0.33163725843690156
aF0.34083742594765315
aF0.3572582611972901
aF0.3697575949944855
aF0.3835578462606128
aF0.39603843101216285
aF0.4078966805977148
aF0.42437376298428786
aF0.43555343026690574
aF0.4480996366782144
aF0.46718792852547447
aF0.48304267574604953
aF0.499538507178268
aF0.5094266315147763
aF0.5203232547828632
aF0.5351882521175052
aF0.5490728740890367
aF0.566935244649946
aF0.5827993663933438
aF0.5953643218502979
aF0.6066189853154972
aF0.6198531485525627
aF0.6384034759392289
aF0.6549555545083833
aF0.662911051687139
aF0.6715263821231833
aF0.6847792944058941
aF0.6993706222488281
aF0.7113038680169613
aF0.7232371137850946
aF0.7371686083707397
aF0.7471223543670068
aF0.7590743491807858
aF0.769706677479987
aF0.7803202567335428
aF0.7916124182900328
aF0.8068823284359006
aF0.81285832584279
aF0.8214924053244796
aF0.8314649003663922
aF0.8433981461345256
aF0.8513723923589266
aF0.8593466385833275
aF0.8666423025047945
aF0.8739567154719065
aF0.8819215871734848
aF0.8905462921323518
aF0.897860705099464
aF0.9064947845811537
aF0.9171083638347097
aF0.923084361241599
aF0.9290603586484882
aF0.9350176070097325
aF0.9409936044166216
aF0.9469508527778658
aF0.9535960579648667
aF0.9589028475916446
aF0.964878844998534
aF0.9721745089200007
aF0.97815050632689
aF0.9831086302793783
aF0.988085503277512
aF0.9913940440867784
aF0.995343669107688
aF1.0
asa(dp177
g164
(lp178
F0.0029561803771152332
aF0.002882300794990915
aF0.0037938146719049947
aF0.004668388757756893
aF0.005871427329954936
aF0.007639045397189833
aF0.009425133359955783
aF0.010591232141091634
aF0.011757330922227523
aF0.012941899598894462
aF0.014783397248253704
aF0.016250255672439064
aF0.017735583992155537
aF0.019429322477266087
aF0.02183539962166218
aF0.024204536974996083
aF0.02595368514669987
aF0.028322822500033776
aF0.030381965262552636
aF0.03269569292929328
aF0.03535635497791115
aF0.03677703866326882
aF0.03825313203521972
aF0.03940076092082452
aF0.04058532959749146
aF0.04233447776919528
aF0.043463636759268946
aF0.04528666451309712
aF0.04761886207536886
aF0.04931260056047941
aF0.05168173791381329
aF0.05337547639892383
aF0.05570767396119558
aF0.05740141244630614
aF0.05973361000857788
aF0.06261191717035537
aF0.06490717494156494
aF0.06660091342667548
aF0.069479220588453
aF0.07290363734973626
aF0.07518042522541475
aF0.07683722391946313
aF0.07909554189961053
aF0.0807523405936589
aF0.08295524888721306
aF0.08464898737232361
aF0.08687036556140885
aF0.08849022446439506
aF0.09073007254901137
aF0.09225758197434218
aF0.09380356129520404
aF0.09595105990216492
aF0.09808008861359474
aF0.09844149925778967
aF0.10049664838709513
aF0.1025702674119317
aF0.10285779847400227
aF0.10380225850876514
aF0.10463589917034148
aF0.10483108075475664
aF0.10617389122477658
aF0.1060406083228456
aF0.10610650063854318
aF0.10516852959967127
aF0.10474372200245631
aF0.10369892522361127
aF0.10270953813135947
aF0.10170168114357661
aF0.10138769291954818
aF0.09948279831716893
aF0.09778107256563161
aF0.09618093123951527
aF0.09525618878162224
aF0.09331834802139422
aF0.09068663849741175
aF0.08907726222352987
aF0.08673707739483139
aF0.08379537328003385
aF0.08120060354711355
aF0.07860583381419325
aF0.07639493825421231
aF0.07356405351260131
aF0.0707146988754592
aF0.06717147547456265
aF0.06434059073295163
aF0.05942809970007729
aF0.055921816090242916
aF0.05031545629361414
aF0.04208138060621627
aF0.033939654396473826
aF0.02718566571424027
aF0.01981168785037662
aF0.009846933886806034
aF0.004554562314205686
aF-0.0013577984400247527
aF-0.007908618271416385
aF-0.015644006779474983
aF-0.018780892478687635
aF-0.020530040650391452
aF-0.020983800772241802
aF-0.020105233053176522
aF-0.019846654515741333
aF-0.01894961690114497
aF-0.01670178155010191
aF-0.015513219240221556
aF-0.014343126825872313
aF-0.011382952815543681
aF-0.009098177673438429
aF-0.006138003663109854
aF-0.0038901683120667603
aF-0.0016977426476169329
aF-0.00016224595585935162
aF0.004204135477509197
aF0.007145839592306722
aF0.009393674943349814
aF0.011659980189923985
aF0.01600789172776145
aF0.018292666869866678
aF0.020558972116440852
aF0.024541479376870037
aF0.027885527560138033
aF0.0301518328067122
aF0.03280201222622576
aF0.035433721750208244
aF0.03905082473322909
aF0.04071561069370425
aF0.04371272449509504
aF0.046052909323793564
aF0.047625345806613276
aF0.050714809085659465
aF0.052379595046134604
aF0.0547382497703642
aF0.05705996470353161
aF0.05804935179578341
aF0.0591680281567528
aF0.06079587432616577
aF0.06081833785491025
aF0.06299628725704237
aF0.06278263577709611
aF0.06324438316537324
aF0.06384989608468564
aF0.06382618487460237
aF0.06358482855135951
aF0.06298730289847389
aF0.06184366764608248
aF0.061301551679790095
aF0.06066708623584229
aF0.059667216514486185
aF0.058722756479723325
aF0.05661219766382461
aF0.0551031581340249
aF0.05401093893501337
aF0.052937189631532926
aF0.051335800624077804
aF0.04911442243499256
aF0.04747609363647527
aF0.045837764837957984
aF0.04359791675334166
aF0.04190417826823108
aF0.039608920497021555
aF0.037276722934749804
aF0.035601454345170334
aF0.0332877266784297
aF0.030427889412183256
aF0.02928026052657851
aF0.027549582250405796
aF0.025198914792602944
aF0.02356058599408566
aF0.02181143782238187
aF0.020062289650678054
aF0.018951600556135432
aF0.017183982488900563
aF0.015763298803542894
aF0.014361085013716308
aF0.012593466946481415
aF0.010862788670308706
aF0.009187520080729232
aF0.008039891195124452
aF0.0068922623095196665
aF0.0064015623966071685
aF0.005253933511002387
aF0.004763233598089854
aF0.0033056101216700287
aF0.002467975826880291
aF0.001320346941275489
aF0.00020965784673286487
aF-0.0009379710388719442
aF-0.0011279113087349195
aF-0.0019747805512901916
aF-0.002210895559980918
aF-0.0017716117004482703
aF-0.0029561803771152298
asg166
(lp179
F0.9998312585891919
aF0.9971919255600368
aF0.9945244689624136
aF0.9905373458502132
aF0.9865408482151902
aF0.9792264352480778
aF0.9725718555382544
aF0.9672556913886537
aF0.9619395272390532
aF0.9572831963467411
aF0.9526081164087841
aF0.9462928278504275
aF0.9406373725493598
aF0.9306836265530927
aF0.9226906312830464
aF0.9133779694984225
aF0.9054037232740216
aF0.8960910614893978
aF0.8874476074848856
aF0.8761554459283954
aF0.8655137431063715
aF0.8575488714047933
aF0.8515634994750811
aF0.8455875020681918
aF0.8409311711758799
aF0.832956924951479
aF0.8263210942873009
aF0.8209861810920549
aF0.8103538527928535
aF0.8004001067965864
aF0.7910874450119626
aF0.7811336990156955
aF0.7705013707164943
aF0.7605476247202271
aF0.7499152964210257
aF0.7353052195324467
aF0.7233532247186679
aF0.7133994787224007
aF0.6987894018338218
aF0.6802015763558648
aF0.6675897482847972
aF0.6563163357739525
aF0.6430446744455964
aF0.6317712619347517
aF0.6165201008345293
aF0.6065663548382623
aF0.5919750269953283
aF0.5793819479699063
aF0.5654504533842614
aF0.5495582080723955
aF0.5343257960178185
aF0.5170951351457298
aF0.49920464101635253
aF0.4886285598540874
aF0.4680987326955549
aF0.44822873879431147
aF0.43501332460289127
aF0.42177916136582577
aF0.40458599858502786
aF0.38807141810716395
aF0.3655808402224108
aF0.3490756342673696
aF0.32794222098848463
aF0.3061770980207789
aF0.29100093310313785
aF0.27716318374571974
aF0.2653049341601678
aF0.2527868513173271
aF0.2415696859434186
aF0.22049251980146975
aF0.20667351948969692
aF0.19648360209301222
aF0.18693476890797087
aF0.17642430940546444
aF0.16461293243402592
aF0.15409309840869684
aF0.14095268039985817
aF0.12981051120853104
aF0.11931880075166999
aF0.1088270902948089
aF0.10030550508699139
aF0.09312233543939671
aF0.08527933253451331
aF0.0761354121606978
aF0.0689522425131031
aF0.05786632045871209
aF0.05004206659947405
aF0.03765522707615092
aF0.025343383735409244
aF0.01633070668111124
aF0.00991986456467747
aF0.004847438008466558
aF0.0011696741494145802
aF0.0
aF0.00016874141080826406
aF0.0010160651245506318
aF0.006519719730604884
aF0.0118921310171416
aF0.019866377241542547
aF0.027143292117364062
aF0.03504254215918356
aF0.0442802077612259
aF0.05283929106033414
aF0.06268054278272912
aF0.06991058504443722
aF0.07648079404885655
aF0.08828279649747238
aF0.09944371473444487
aF0.11124571718306069
aF0.1210869689054557
aF0.1289487208559845
aF0.13682922185215862
aF0.15189289249592747
aF0.16303506168725457
aF0.17287631340964954
aF0.18337739838933328
aF0.19778123577581336
aF0.20894215401278582
aF0.21944323899246954
aF0.2325367843871948
aF0.2463089120848542
aF0.2568099970645379
aF0.26928120729326516
aF0.2810925842647037
aF0.29287583766767417
aF0.3053751714648695
aF0.31849684042806287
aF0.33163725843690156
aF0.34083742594765315
aF0.3572582611972901
aF0.3697575949944855
aF0.3835578462606128
aF0.39603843101216285
aF0.4078966805977148
aF0.42437376298428786
aF0.43555343026690574
aF0.4480996366782144
aF0.46718792852547447
aF0.48304267574604953
aF0.499538507178268
aF0.5094266315147763
aF0.5203232547828632
aF0.5351882521175052
aF0.5490728740890367
aF0.566935244649946
aF0.5827993663933438
aF0.5953643218502979
aF0.6066189853154972
aF0.6198531485525627
aF0.6384034759392289
aF0.6549555545083833
aF0.662911051687139
aF0.6715263821231833
aF0.6847792944058941
aF0.6993706222488281
aF0.7113038680169613
aF0.7232371137850946
aF0.7371686083707397
aF0.7471223543670068
aF0.7590743491807858
aF0.769706677479987
aF0.7803202567335428
aF0.7916124182900328
aF0.8068823284359006
aF0.81285832584279
aF0.8214924053244796
aF0.8314649003663922
aF0.8433981461345256
aF0.8513723923589266
aF0.8593466385833275
aF0.8666423025047945
aF0.8739567154719065
aF0.8819215871734848
aF0.8905462921323518
aF0.897860705099464
aF0.9064947845811537
aF0.9171083638347097
aF0.923084361241599
aF0.9290603586484882
aF0.9350176070097325
aF0.9409936044166216
aF0.9469508527778658
aF0.9535960579648667
aF0.9589028475916446
aF0.964878844998534
aF0.9721745089200007
aF0.97815050632689
aF0.9831086302793783
aF0.988085503277512
aF0.9913940440867784
aF0.995343669107688
aF1.0
asas.